Certificate:
    Data:
        Version: 1 (0x0)
        Serial Number: 1048622 (0x10002e)
        Signature Algorithm: sha1WithRSAEncryption
        Issuer: O=Spirent Communications, OU=PAW/emailAddress=support@spirent.com, L=Eatontown, ST=NJ, C=US, CN=www.spirent-lcs.com
        Validity
            Not Before: Feb 20 06:42:53 2012 GMT
            Not After : Feb 17 06:42:53 2022 GMT
        Subject: C=US, ST=NJ, O=Spirent Communications, OU=PAW, CN=www.spirent-lcs.com
        Subject Public Key Info:
            Public Key Algorithm: rsaEncryption
                Public-Key: (4096 bit)
                Modulus:
                    00:de:74:e9:f9:3d:95:b7:a4:2d:89:d3:a2:6f:55:
                    f2:e8:e8:41:0d:01:de:58:4b:30:06:6d:c6:51:ad:
                    cb:c9:ac:f7:b9:85:f4:6f:f0:b6:44:73:dd:38:75:
                    d6:40:11:7e:ea:6c:2d:66:a7:f2:79:7b:d6:67:5f:
                    a0:67:f7:56:c5:38:96:65:6a:23:c6:00:2d:cd:2e:
                    1a:f6:c8:d5:8e:f1:1b:c8:eb:20:fd:75:e5:2e:c7:
                    fd:4d:82:5d:af:e8:bb:11:5c:75:ad:38:4e:5f:8d:
                    1a:1a:3a:c2:f9:76:ae:b6:3d:d4:ad:bd:99:cc:3a:
                    12:1f:2e:b0:78:6c:30:18:74:6f:58:ab:c4:75:ff:
                    23:bf:ef:9c:ab:2e:94:17:ec:e9:54:75:e1:11:c6:
                    6a:4a:20:4b:bf:b2:93:50:d9:ca:b3:1f:27:00:ac:
                    cc:2e:5a:f3:ab:9e:97:23:87:49:ad:cd:a7:55:a3:
                    c8:3b:0e:f6:51:f9:0f:b0:ad:ac:01:82:c2:c0:4d:
                    13:da:2d:df:4f:63:91:3f:2f:ab:d0:39:8b:79:4d:
                    b6:b1:b1:31:f4:74:59:13:a5:32:59:38:e2:b8:60:
                    83:9c:77:fa:aa:f7:e3:d0:cc:57:0a:66:32:04:5b:
                    0b:1c:ab:76:ff:fb:18:43:ee:f2:73:38:5c:10:f6:
                    47:7f:db:08:be:ce:27:f9:96:65:a9:06:3a:21:45:
                    13:25:34:ad:14:31:17:24:3c:be:f9:3a:1c:bb:a6:
                    99:e1:18:17:b3:9a:16:74:82:a6:57:15:b1:fe:df:
                    3e:5a:91:81:26:99:24:12:31:7b:e9:af:f1:48:d1:
                    95:22:13:4d:a4:bf:ff:4d:5e:95:e2:99:eb:92:53:
                    e1:37:67:9a:95:2c:1a:6b:d0:47:90:d4:26:94:cc:
                    ca:38:e7:8d:85:c6:d1:b2:93:f6:97:4d:61:9f:ad:
                    dd:1c:81:45:98:66:f1:94:3f:78:40:a2:6f:0e:80:
                    c7:33:a9:49:63:d6:5f:92:f7:c1:a5:2c:ee:14:66:
                    b4:cd:f9:26:9d:e8:90:f3:03:15:75:4b:31:ec:fd:
                    04:3d:3d:48:74:9a:64:a3:f9:a3:62:99:51:7d:32:
                    fd:6c:ff:82:41:fc:3a:23:6b:c1:58:11:e4:98:1c:
                    45:68:5e:0b:06:8c:68:74:cb:e7:ac:df:9f:28:a6:
                    51:23:3f:1b:d1:9d:4a:bb:1c:4f:8b:bc:99:91:a6:
                    f2:e9:40:99:8d:f0:75:19:59:a0:d2:7f:be:d7:f4:
                    9f:92:e5:3d:60:61:77:be:23:66:f1:42:fd:52:69:
                    ad:85:78:b1:e3:ef:64:dd:56:f2:86:e2:a9:a4:43:
                    0e:7c:6d
                Exponent: 65537 (0x10001)
    Signature Algorithm: sha1WithRSAEncryption
        98:19:98:a0:c0:90:3f:b2:7d:49:66:e4:26:70:c0:98:8e:be:
        53:20:20:8c:48:82:84:02:0b:f7:cb:4d:b0:9c:ed:1d:5f:d1:
        4f:bf:db:17:2e:55:f0:4e:36:81:bb:71:41:cf:ab:1d:c8:9e:
        6d:b6:c0:2b:ba:ed:22:4f:0c:81:84:3c:9e:b0:66:c9:e0:b3:
        80:13:5f:bd:cb:46:a6:bb:7f:af:b5:a1:2f:eb:05:ea:d1:55:
        a9:ac:59:90:bb:6c:ba:a0:b0:9c:53:f5:b2:df:fc:5a:3f:03:
        da:5e:9a:dd:7d:e5:e2:f9:47:f2:9f:76:24:15:35:35:73:62:
        48:d4:8a:ed:ad:9b:81:7b:2e:c9:3e:e0:d5:cd:7e:5a:3d:e7:
        45:5a:b3:8e:01:ad:a1:3e:78:50:b8:ea:ae:97:a9:56:0f:98:
        46:69:eb:c4:ca:15:1f:45:6c:2a:1e:9c:03:9b:2b:1e:bd:43:
        e5:f2:1f:aa:e1:98:d7:25:1d:62:21:99:22:80:7d:36:c5:0c:
        b3:b7:7d:2b:e4:45:c5:fa:25:06:c3:89:a3:e7:a8:d1:92:20:
        51:92:77:bf:1b:72:15:62:1f:5d:d1:a0:d2:64:cd:80:69:d3:
        60:6b:b3:c4:53:1e:12:f5:19:a9:f3:a1:66:fe:c2:df:51:e9:
        48:6b:37:59:0f:79:f3:bd:cd:af:9c:4f:da:57:cc:7d:33:f7:
        e0:73:56:ea:99:39:10:5e:0a:7a:d6:93:f6:2d:58:1d:e0:49:
        05:47:07:14:48:f6:3d:80:8a:25:da:2b:c2:51:7a:03:6c:e7:
        20:ec:91:64:c9:1e:08:4f:f2:cb:9f:23:03:3b:6f:1e:78:8a:
        14:30:2f:8a:61:01:16:55:57:10:16:e3:1b:3b:66:a4:79:d1:
        1d:c9:9d:5a:ed:be:0e:c0:8b:7f:92:59:29:ed:92:db:40:14:
        41:69:97:fc:b2:16:4a:9f:ff:45:bb:50:7b:d5:53:4d:7a:85:
        2b:d4:aa:79:d9:fe:15:08:db:40:a5:7a:49:5c:2f:19:7f:eb:
        47:91:3a:fb:27:e4:78:05:ab:b1:6c:b0:9f:f5:47:37:d1:b7:
        d9:d8:35:57:31:f0:08:e0:33:7e:3c:f9:ad:86:eb:b2:ef:70:
        37:97:cf:01:7e:31:00:c2:e2:5e:8e:40:0a:71:bb:5f:24:e8:
        23:25:f6:7e:29:dd:cd:ec:24:6a:b2:c3:09:c3:5d:83:a7:43:
        15:50:44:de:81:f7:03:cd:1d:8c:10:c6:94:61:56:f6:57:71:
        94:1d:0d:a6:b8:89:3a:38:58:01:a5:08:10:4c:dc:89:23:05:
        7b:3d:90:69:32:52:aa:ff
-----BEGIN CERTIFICATE-----
MIIFfTCCA2UCAxAALjANBgkqhkiG9w0BAQUFADCBnzEfMB0GA1UEChMWU3BpcmVu
dCBDb21tdW5pY2F0aW9uczEMMAoGA1UECxMDUEFXMSIwIAYJKoZIhvcNAQkBFhNz
dXBwb3J0QHNwaXJlbnQuY29tMRIwEAYDVQQHEwlFYXRvbnRvd24xCzAJBgNVBAgT
Ak5KMQswCQYDVQQGEwJVUzEcMBoGA1UEAxMTd3d3LnNwaXJlbnQtbGNzLmNvbTAe
Fw0xMjAyMjAwNjQyNTNaFw0yMjAyMTcwNjQyNTNaMGcxCzAJBgNVBAYTAlVTMQsw
CQYDVQQIEwJOSjEfMB0GA1UEChMWU3BpcmVudCBDb21tdW5pY2F0aW9uczEMMAoG
A1UECxMDUEFXMRwwGgYDVQQDExN3d3cuc3BpcmVudC1sY3MuY29tMIICIjANBgkq
hkiG9w0BAQEFAAOCAg8AMIICCgKCAgEA3nTp+T2Vt6QtidOib1Xy6OhBDQHeWEsw
Bm3GUa3Lyaz3uYX0b/C2RHPdOHXWQBF+6mwtZqfyeXvWZ1+gZ/dWxTiWZWojxgAt
zS4a9sjVjvEbyOsg/XXlLsf9TYJdr+i7EVx1rThOX40aGjrC+Xautj3Urb2ZzDoS
Hy6weGwwGHRvWKvEdf8jv++cqy6UF+zpVHXhEcZqSiBLv7KTUNnKsx8nAKzMLlrz
q56XI4dJrc2nVaPIOw72UfkPsK2sAYLCwE0T2i3fT2ORPy+r0DmLeU22sbEx9HRZ
E6UyWTjiuGCDnHf6qvfj0MxXCmYyBFsLHKt2//sYQ+7yczhcEPZHf9sIvs4n+ZZl
qQY6IUUTJTStFDEXJDy++Tocu6aZ4RgXs5oWdIKmVxWx/t8+WpGBJpkkEjF76a/x
SNGVIhNNpL//TV6V4pnrklPhN2ealSwaa9BHkNQmlMzKOOeNhcbRspP2l01hn63d
HIFFmGbxlD94QKJvDoDHM6lJY9ZfkvfBpSzuFGa0zfkmneiQ8wMVdUsx7P0EPT1I
dJpko/mjYplRfTL9bP+CQfw6I2vBWBHkmBxFaF4LBoxodMvnrN+fKKZRIz8b0Z1K
uxxPi7yZkaby6UCZjfB1GVmg0n++1/SfkuU9YGF3viNm8UL9UmmthXix4+9k3Vby
huKppEMOfG0CAwEAATANBgkqhkiG9w0BAQUFAAOCAgEAmBmYoMCQP7J9SWbkJnDA
mI6+UyAgjEiChAIL98tNsJztHV/RT7/bFy5V8E42gbtxQc+rHciebbbAK7rtIk8M
gYQ8nrBmyeCzgBNfvctGprt/r7WhL+sF6tFVqaxZkLtsuqCwnFP1st/8Wj8D2l6a
3X3l4vlH8p92JBU1NXNiSNSK7a2bgXsuyT7g1c1+Wj3nRVqzjgGtoT54ULjqrpep
Vg+YRmnrxMoVH0VsKh6cA5srHr1D5fIfquGY1yUdYiGZIoB9NsUMs7d9K+RFxfol
BsOJo+eo0ZIgUZJ3vxtyFWIfXdGg0mTNgGnTYGuzxFMeEvUZqfOhZv7C31HpSGs3
WQ95873Nr5xP2lfMfTP34HNW6pk5EF4KetaT9i1YHeBJBUcHFEj2PYCKJdorwlF6
A2znIOyRZMkeCE/yy58jAztvHniKFDAvimEBFlVXEBbjGztmpHnRHcmdWu2+DsCL
f5JZKe2S20AUQWmX/LIWSp//RbtQe9VTTXqFK9Sqedn+FQjbQKV6SVwvGX/rR5E6
+yfkeAWrsWywn/VHN9G32dg1VzHwCOAzfjz5rYbrsu9wN5fPAX4xAMLiXo5ACnG7
XyToIyX2findzewkarLDCcNdg6dDFVBE3oH3A80djBDGlGFW9ldxlB0NpriJOjhY
AaUIEEzciSMFez2QaTJSqv8=
-----END CERTIFICATE-----
