-----BEGIN CERTIFICATE-----
MIICSDCCAbECBEpblVswDQYJKoZIhvcNAQEFBQAwazELMAkGA1UEBhMCQ0ExCzAJ
BgNVBAgTAk9OMRAwDgYDVQQHEwdUb3JvbnRvMQ4wDAYDVQQKEwVURUxVUzEMMAoG
A1UECxMDTEJTMR8wHQYDVQQDExZzdXBsLnRlbHVzbW9iaWxpdHkuY29tMB4XDTA5
MDcxMzIwMTMxNVoXDTE5MDcxMTIwMTMxNVowazELMAkGA1UEBhMCQ0ExCzAJBgNV
BAgTAk9OMRAwDgYDVQQHEwdUb3JvbnRvMQ4wDAYDVQQKEwVURUxVUzEMMAoGA1UE
CxMDTEJTMR8wHQYDVQQDExZzdXBsLnRlbHVzbW9iaWxpdHkuY29tMIGfMA0GCSqG
SIb3DQEBAQUAA4GNADCBiQKBgQDSbdW4kmFcGGeFtMGJx7qEOdIaqwkCbnH2A0E8
TbvJIEshTmRYNL3tAAiBa1OAhg+HSSSxt1jljPfbxd3xtsfeJ9QBI+bsczNqJxy+
Or+mswtm4+k1TV3gl9RFvc90DOcNpY+LBBD4DWDDIcwzDYfOtRfKS+BhTx9BDQZ4
EyeYDQIDAQABMA0GCSqGSIb3DQEBBQUAA4GBACiVKyiYs8zdXJYj6uiQ8itx0cc5
PkJPNFl3lIzwtS7qSS1PRLRUM2XeihYhAR8L30SMzBv0YPHhVyvFIAzZSDtgwXsY
VNYKmq+ADGyzipR+VFumzE/xBa4KfLnfcSrBdRaHp5wepddlYtPcjp1eGh6ny0kc
AF2uKlsL8Oe/0cWz
-----END CERTIFICATE-----
Certificate:
    Data:
        Version: 1 (0x0)
        Serial Number: 1247515995 (0x4a5b955b)
    Signature Algorithm: sha1WithRSAEncryption
        Issuer: C=CA, ST=ON, L=Toronto, O=TELUS, OU=LBS, CN=supl.telusmobility.com
        Validity
            Not Before: Jul 13 20:13:15 2009 GMT
            Not After : Jul 11 20:13:15 2019 GMT
        Subject: C=CA, ST=ON, L=Toronto, O=TELUS, OU=LBS, CN=supl.telusmobility.com
        Subject Public Key Info:
            Public Key Algorithm: rsaEncryption
                Public-Key: (1024 bit)
                Modulus:
                    00:d2:6d:d5:b8:92:61:5c:18:67:85:b4:c1:89:c7:
                    ba:84:39:d2:1a:ab:09:02:6e:71:f6:03:41:3c:4d:
                    bb:c9:20:4b:21:4e:64:58:34:bd:ed:00:08:81:6b:
                    53:80:86:0f:87:49:24:b1:b7:58:e5:8c:f7:db:c5:
                    dd:f1:b6:c7:de:27:d4:01:23:e6:ec:73:33:6a:27:
                    1c:be:3a:bf:a6:b3:0b:66:e3:e9:35:4d:5d:e0:97:
                    d4:45:bd:cf:74:0c:e7:0d:a5:8f:8b:04:10:f8:0d:
                    60:c3:21:cc:33:0d:87:ce:b5:17:ca:4b:e0:61:4f:
                    1f:41:0d:06:78:13:27:98:0d
                Exponent: 65537 (0x10001)
    Signature Algorithm: sha1WithRSAEncryption
         28:95:2b:28:98:b3:cc:dd:5c:96:23:ea:e8:90:f2:2b:71:d1:
         c7:39:3e:42:4f:34:59:77:94:8c:f0:b5:2e:ea:49:2d:4f:44:
         b4:54:33:65:de:8a:16:21:01:1f:0b:df:44:8c:cc:1b:f4:60:
         f1:e1:57:2b:c5:20:0c:d9:48:3b:60:c1:7b:18:54:d6:0a:9a:
         af:80:0c:6c:b3:8a:94:7e:54:5b:a6:cc:4f:f1:05:ae:0a:7c:
         b9:df:71:2a:c1:75:16:87:a7:9c:1e:a5:d7:65:62:d3:dc:8e:
         9d:5e:1a:1e:a7:cb:49:1c:00:5d:ae:2a:5b:0b:f0:e7:bf:d1:
         c5:b3
SHA1 Fingerprint=8A:68:2B:D2:6A:01:82:39:27:8B:E3:62:F0:7E:10:13:9D:B3:CC:25
