-----BEGIN CERTIFICATE-----
MIICaTCCAdKgAwIBAgIQbmhJohVM1sTInX42KelaHDANBgkqhkiG9w0BAQUFADBZ
MQswCQYDVQQGEwJDTjEqMCgGA1UECgwhQ2hpbmEgTW9iaWxlIENvbW11bmljYXRp
b25zIENvcnAuMR4wHAYDVQQDDBVDaGluYSBNb2JpbGUgUm9vdCBDQTIwHhcNMDUw
NDI2MTYwMDAwWhcNMzUwNDI2MTU1OTU5WjBZMQswCQYDVQQGEwJDTjEqMCgGA1UE
CgwhQ2hpbmEgTW9iaWxlIENvbW11bmljYXRpb25zIENvcnAuMR4wHAYDVQQDDBVD
aGluYSBNb2JpbGUgUm9vdCBDQTIwgZ8wDQYJKoZIhvcNAQEBBQADgY0AMIGJAoGB
AJ/+dIf2z+oUAgfe7J1loLqq9EptAQMO4+JcUWaonjnAvitup2HpfFmNZh3F9UVW
9U0ZM00y4SQ+Tn13rB8/jVA7P0O3fR/eH2LcDivwNZO8gvYaf/EZlaNcxJpGETP2
1njJx5kimVinQOKnyBcAPH9axW3oRk+vW9NtjbIqnNP5AgMBAAGjMjAwMA8GA1Ud
EwQIMAYBAf8CAQEwHQYDVR0OBBYEFDaO6Rv6i8vYeVFuZGCH2fSCxkeyMA0GCSqG
SIb3DQEBBQUAA4GBACZMzJq4gFfSzF8JD1PwjPko35uJBB5PtNFUR47321RgIanc
VXvgbFz3GZppoYN6k9L3JKf0RPtsqa+7MWATYqibObqv6+k7I5qlBgf2GknMMsT6
LxOEVKjhUTvR8YZouLNRIaklQlwcFpc7z2qXKasUqFcCnrEKv1zrbho+Nqzm
-----END CERTIFICATE-----
Certificate:
    Data:
        Version: 3 (0x2)
        Serial Number:
            6e:68:49:a2:15:4c:d6:c4:c8:9d:7e:36:29:e9:5a:1c
    Signature Algorithm: sha1WithRSAEncryption
        Issuer: C=CN, O=China Mobile Communications Corp., CN=China Mobile Root CA2
        Validity
            Not Before: Apr 26 16:00:00 2005 GMT
            Not After : Apr 26 15:59:59 2035 GMT
        Subject: C=CN, O=China Mobile Communications Corp., CN=China Mobile Root CA2
        Subject Public Key Info:
            Public Key Algorithm: rsaEncryption
                Public-Key: (1024 bit)
                Modulus:
                    00:9f:fe:74:87:f6:cf:ea:14:02:07:de:ec:9d:65:
                    a0:ba:aa:f4:4a:6d:01:03:0e:e3:e2:5c:51:66:a8:
                    9e:39:c0:be:2b:6e:a7:61:e9:7c:59:8d:66:1d:c5:
                    f5:45:56:f5:4d:19:33:4d:32:e1:24:3e:4e:7d:77:
                    ac:1f:3f:8d:50:3b:3f:43:b7:7d:1f:de:1f:62:dc:
                    0e:2b:f0:35:93:bc:82:f6:1a:7f:f1:19:95:a3:5c:
                    c4:9a:46:11:33:f6:d6:78:c9:c7:99:22:99:58:a7:
                    40:e2:a7:c8:17:00:3c:7f:5a:c5:6d:e8:46:4f:af:
                    5b:d3:6d:8d:b2:2a:9c:d3:f9
                Exponent: 65537 (0x10001)
        X509v3 extensions:
            X509v3 Basic Constraints: 
                CA:TRUE, pathlen:1
            X509v3 Subject Key Identifier: 
                36:8E:E9:1B:FA:8B:CB:D8:79:51:6E:64:60:87:D9:F4:82:C6:47:B2
    Signature Algorithm: sha1WithRSAEncryption
         26:4c:cc:9a:b8:80:57:d2:cc:5f:09:0f:53:f0:8c:f9:28:df:
         9b:89:04:1e:4f:b4:d1:54:47:8e:f7:db:54:60:21:a9:dc:55:
         7b:e0:6c:5c:f7:19:9a:69:a1:83:7a:93:d2:f7:24:a7:f4:44:
         fb:6c:a9:af:bb:31:60:13:62:a8:9b:39:ba:af:eb:e9:3b:23:
         9a:a5:06:07:f6:1a:49:cc:32:c4:fa:2f:13:84:54:a8:e1:51:
         3b:d1:f1:86:68:b8:b3:51:21:a9:25:42:5c:1c:16:97:3b:cf:
         6a:97:29:ab:14:a8:57:02:9e:b1:0a:bf:5c:eb:6e:1a:3e:36:
         ac:e6
SHA1 Fingerprint=CD:49:13:F2:1B:FA:30:72:A9:9F:B9:7B:73:1B:E2:2D:5D:B7:EF:F3
