-----BEGIN CERTIFICATE-----
MIICiDCCAfGgAwIBAgIQFcByEvix2VbIkrGOfVPdkjANBgkqhkiG9w0BAQUFADBT
MQswCQYDVQQGEwJDTjEqMCgGA1UECgwhQ2hpbmEgTW9iaWxlIENvbW11bmljYXRp
b25zIENvcnAuMRgwFgYDVQQDDA9DaGluYSBNb2JpbGUgQ0EwHhcNMDUwMzMxMTYw
MDAwWhcNMzUwNDAxMTU1OTU5WjBTMQswCQYDVQQGEwJDTjEqMCgGA1UECgwhQ2hp
bmEgTW9iaWxlIENvbW11bmljYXRpb25zIENvcnAuMRgwFgYDVQQDDA9DaGluYSBN
b2JpbGUgQ0EwgZ8wDQYJKoZIhvcNAQEBBQADgY0AMIGJAoGBALZGZFFbq7U2V5TS
t2TT25YctszilGw+q6+8fAm54wMM9vXmV71AnZAJScHu114rsDyDr1joGO8uCs+E
w6s72b1hDvHgq1dpI4kKTbUCHXh6u5QCBGGqVvr4LdzMqJyKf0iLGbWtjZCwgeuy
XjwzUchJ+tHJFZ2HtaoeaxBnqf2ZAgMBAAGjXTBbMAsGA1UdDwQEAwIBBjAMBgNV
HRMEBTADAQH/MB0GA1UdDgQWBBRNgCFLNmcfs/ZYwNqOM/b5D9KsvTAfBgNVHSME
GDAWgBRNgCFLNmcfs/ZYwNqOM/b5D9KsvTANBgkqhkiG9w0BAQUFAAOBgQCde1Re
t0BJ8iU09DsuPV40LpMEwj+kATa9C6Z2WMQsHsa6wcpdCm9l1TXcheijqEB/jUnA
+KV4vRNUz6wQLq5Kel9n2SCrJcWlbVwdz3Od/firCKd2ha0oUAlizJcGJFnLijdy
EYHW33ecL8Kw9jAiz5pXIpRp/8MGB/7o2MniVQ==
-----END CERTIFICATE-----
Certificate:
    Data:
        Version: 3 (0x2)
        Serial Number:
            15:c0:72:12:f8:b1:d9:56:c8:92:b1:8e:7d:53:dd:92
    Signature Algorithm: sha1WithRSAEncryption
        Issuer: C=CN, O=China Mobile Communications Corp., CN=China Mobile CA
        Validity
            Not Before: Mar 31 16:00:00 2005 GMT
            Not After : Apr  1 15:59:59 2035 GMT
        Subject: C=CN, O=China Mobile Communications Corp., CN=China Mobile CA
        Subject Public Key Info:
            Public Key Algorithm: rsaEncryption
                Public-Key: (1024 bit)
                Modulus:
                    00:b6:46:64:51:5b:ab:b5:36:57:94:d2:b7:64:d3:
                    db:96:1c:b6:cc:e2:94:6c:3e:ab:af:bc:7c:09:b9:
                    e3:03:0c:f6:f5:e6:57:bd:40:9d:90:09:49:c1:ee:
                    d7:5e:2b:b0:3c:83:af:58:e8:18:ef:2e:0a:cf:84:
                    c3:ab:3b:d9:bd:61:0e:f1:e0:ab:57:69:23:89:0a:
                    4d:b5:02:1d:78:7a:bb:94:02:04:61:aa:56:fa:f8:
                    2d:dc:cc:a8:9c:8a:7f:48:8b:19:b5:ad:8d:90:b0:
                    81:eb:b2:5e:3c:33:51:c8:49:fa:d1:c9:15:9d:87:
                    b5:aa:1e:6b:10:67:a9:fd:99
                Exponent: 65537 (0x10001)
        X509v3 extensions:
            X509v3 Key Usage: 
                Certificate Sign, CRL Sign
            X509v3 Basic Constraints: 
                CA:TRUE
            X509v3 Subject Key Identifier: 
                4D:80:21:4B:36:67:1F:B3:F6:58:C0:DA:8E:33:F6:F9:0F:D2:AC:BD
            X509v3 Authority Key Identifier: 
                keyid:4D:80:21:4B:36:67:1F:B3:F6:58:C0:DA:8E:33:F6:F9:0F:D2:AC:BD

    Signature Algorithm: sha1WithRSAEncryption
         9d:7b:54:5e:b7:40:49:f2:25:34:f4:3b:2e:3d:5e:34:2e:93:
         04:c2:3f:a4:01:36:bd:0b:a6:76:58:c4:2c:1e:c6:ba:c1:ca:
         5d:0a:6f:65:d5:35:dc:85:e8:a3:a8:40:7f:8d:49:c0:f8:a5:
         78:bd:13:54:cf:ac:10:2e:ae:4a:7a:5f:67:d9:20:ab:25:c5:
         a5:6d:5c:1d:cf:73:9d:fd:f8:ab:08:a7:76:85:ad:28:50:09:
         62:cc:97:06:24:59:cb:8a:37:72:11:81:d6:df:77:9c:2f:c2:
         b0:f6:30:22:cf:9a:57:22:94:69:ff:c3:06:07:fe:e8:d8:c9:
         e2:55
SHA1 Fingerprint=4F:05:F9:C1:70:8C:A9:33:00:54:55:21:E5:6F:80:12:E6:18:A1:62
